; Function Attrs: mustprogress nounwind uwtable
define dso_local ptr @LLVMDIGlobalVariableExpressionGetExpression(ptr noundef %0) local_unnamed_addr #0 {
  %2 = getelementptr inbounds i8, ptr %0, i64 -16
  %3 = load i64, ptr %2, align 8
  %4 = and i64 %3, 2
  %.not.i.i.i.i = icmp eq i64 %4, 0
  br i1 %.not.i.i.i.i, label %9, label %5

5:                                                ; preds = %1
  %6 = getelementptr inbounds i8, ptr %0, i64 -32
  %7 = load ptr, ptr %6, align 8
  %8 = tail call noundef i64 @_ZNK4llvm15SmallVectorBaseIjE4sizeEv(ptr noundef nonnull align 8 dereferenceable(16) %6) #15
  br label %_ZNK4llvm26DIGlobalVariableExpression13getExpressionEv.exit

9:                                                ; preds = %1
  %10 = lshr i64 %3, 2
  %11 = and i64 %10, 15
  %12 = sub nsw i64 0, %11
  %13 = getelementptr inbounds %"class.llvm::MDOperand", ptr %2, i64 %12
  br label %_ZNK4llvm26DIGlobalVariableExpression13getExpressionEv.exit

_ZNK4llvm26DIGlobalVariableExpression13getExpressionEv.exit: ; preds = %5, %9
  %.sroa.0.0.i.i.i.i = phi ptr [ %13, %9 ], [ %7, %5 ]
  %14 = getelementptr inbounds nuw i8, ptr %.sroa.0.0.i.i.i.i, i64 8
  %15 = load ptr, ptr %14, align 8
  ret ptr %15
}